; ModuleID = '29/918.c'
source_filename = "29/918.c"
target datalayout = "e-m:e-p270:32:32-p271:32:32-p272:64:64-i64:64-f80:128-n8:16:32:64-S128"
target triple = "x86_64-pc-linux-gnu"

@.str = private unnamed_addr constant [3 x i8] c"%d\00", align 1
@.str.1 = private unnamed_addr constant [7 x i8] c"%.3lf\0A\00", align 1

; Function Attrs: noinline nounwind uwtable
define dso_local i32 @main() #0 {
  %1 = alloca i32, align 4
  %2 = alloca i32, align 4
  %3 = alloca i32, align 4
  %4 = alloca i32, align 4
  %5 = alloca [100 x i32], align 16
  %6 = alloca double, align 8
  %7 = alloca double, align 8
  %8 = alloca double, align 8
  %9 = alloca double, align 8
  %10 = alloca double, align 8
  %11 = alloca double, align 8
  %12 = alloca double, align 8
  %13 = alloca double, align 8
  store i32 0, i32* %1, align 4
  %14 = bitcast [100 x i32]* %5 to i8*
  call void @llvm.memset.p0i8.i64(i8* align 16 %14, i8 0, i64 400, i1 false)
  %15 = call i32 (i8*, ...) @__isoc99_scanf(i8* getelementptr inbounds ([3 x i8], [3 x i8]* @.str, i64 0, i64 0), i32* %2)
  store double 2.000000e+00, double* %6, align 8
  store double 3.000000e+00, double* %7, align 8
  store double 1.000000e+00, double* %8, align 8
  store double 2.000000e+00, double* %9, align 8
  store i32 0, i32* %3, align 4
  br label %16

16:                                               ; preds = %110, %0
  %17 = load i32, i32* %3, align 4
  %18 = load i32, i32* %2, align 4
  %19 = icmp slt i32 %17, %18
  br i1 %19, label %20, label %113

20:                                               ; preds = %16
  %21 = load i32, i32* %3, align 4
  %22 = sext i32 %21 to i64
  %23 = getelementptr inbounds [100 x i32], [100 x i32]* %5, i64 0, i64 %22
  %24 = call i32 (i8*, ...) @__isoc99_scanf(i8* getelementptr inbounds ([3 x i8], [3 x i8]* @.str, i64 0, i64 0), i32* %23)
  %25 = load i32, i32* %3, align 4
  %26 = sext i32 %25 to i64
  %27 = getelementptr inbounds [100 x i32], [100 x i32]* %5, i64 0, i64 %26
  %28 = load i32, i32* %27, align 4
  %29 = icmp eq i32 %28, 1
  br i1 %29, label %30, label %35

30:                                               ; preds = %20
  %31 = load double, double* %6, align 8
  %32 = load double, double* %8, align 8
  %33 = fdiv double %31, %32
  %34 = call i32 (i8*, ...) @printf(i8* getelementptr inbounds ([7 x i8], [7 x i8]* @.str.1, i64 0, i64 0), double %33)
  br label %35

35:                                               ; preds = %30, %20
  %36 = load i32, i32* %3, align 4
  %37 = sext i32 %36 to i64
  %38 = getelementptr inbounds [100 x i32], [100 x i32]* %5, i64 0, i64 %37
  %39 = load i32, i32* %38, align 4
  %40 = icmp eq i32 %39, 2
  br i1 %40, label %41, label %50

41:                                               ; preds = %35
  %42 = load double, double* %6, align 8
  %43 = load double, double* %8, align 8
  %44 = fdiv double %42, %43
  %45 = load double, double* %7, align 8
  %46 = load double, double* %9, align 8
  %47 = fdiv double %45, %46
  %48 = fadd double %44, %47
  %49 = call i32 (i8*, ...) @printf(i8* getelementptr inbounds ([7 x i8], [7 x i8]* @.str.1, i64 0, i64 0), double %48)
  br label %50

50:                                               ; preds = %41, %35
  %51 = load i32, i32* %3, align 4
  %52 = sext i32 %51 to i64
  %53 = getelementptr inbounds [100 x i32], [100 x i32]* %5, i64 0, i64 %52
  %54 = load i32, i32* %53, align 4
  %55 = icmp sgt i32 %54, 2
  br i1 %55, label %56, label %109

56:                                               ; preds = %50
  %57 = load double, double* %6, align 8
  %58 = load double, double* %8, align 8
  %59 = fdiv double %57, %58
  %60 = load double, double* %7, align 8
  %61 = load double, double* %9, align 8
  %62 = fdiv double %60, %61
  %63 = fadd double %59, %62
  store double %63, double* %13, align 8
  store i32 0, i32* %4, align 4
  br label %64

64:                                               ; preds = %96, %56
  %65 = load i32, i32* %4, align 4
  %66 = load i32, i32* %3, align 4
  %67 = sext i32 %66 to i64
  %68 = getelementptr inbounds [100 x i32], [100 x i32]* %5, i64 0, i64 %67
  %69 = load i32, i32* %68, align 4
  %70 = sub nsw i32 %69, 2
  %71 = icmp slt i32 %65, %70
  br i1 %71, label %72, label %99

72:                                               ; preds = %64
  %73 = load double, double* %6, align 8
  %74 = load double, double* %7, align 8
  %75 = fadd double %73, %74
  store double %75, double* %10, align 8
  %76 = load double, double* %8, align 8
  %77 = load double, double* %9, align 8
  %78 = fadd double %76, %77
  store double %78, double* %11, align 8
  %79 = load double, double* %10, align 8
  %80 = load double, double* %11, align 8
  %81 = fdiv double %79, %80
  %82 = load double, double* %13, align 8
  %83 = fadd double %82, %81
  store double %83, double* %13, align 8
  %84 = load double, double* %7, align 8
  store double %84, double* %12, align 8
  %85 = load double, double* %6, align 8
  store double %85, double* %7, align 8
  %86 = load double, double* %12, align 8
  store double %86, double* %6, align 8
  %87 = load double, double* %9, align 8
  store double %87, double* %12, align 8
  %88 = load double, double* %8, align 8
  store double %88, double* %9, align 8
  %89 = load double, double* %12, align 8
  store double %89, double* %8, align 8
  %90 = load double, double* %10, align 8
  store double %90, double* %12, align 8
  %91 = load double, double* %7, align 8
  store double %91, double* %10, align 8
  %92 = load double, double* %12, align 8
  store double %92, double* %7, align 8
  %93 = load double, double* %11, align 8
  store double %93, double* %12, align 8
  %94 = load double, double* %9, align 8
  store double %94, double* %11, align 8
  %95 = load double, double* %12, align 8
  store double %95, double* %9, align 8
  br label %96

96:                                               ; preds = %72
  %97 = load i32, i32* %4, align 4
  %98 = add nsw i32 %97, 1
  store i32 %98, i32* %4, align 4
  br label %64

99:                                               ; preds = %64
  %100 = load double, double* %13, align 8
  %101 = call i32 (i8*, ...) @printf(i8* getelementptr inbounds ([7 x i8], [7 x i8]* @.str.1, i64 0, i64 0), double %100)
  store double 2.000000e+00, double* %6, align 8
  store double 3.000000e+00, double* %7, align 8
  store double 1.000000e+00, double* %8, align 8
  store double 2.000000e+00, double* %9, align 8
  %102 = load double, double* %6, align 8
  %103 = load double, double* %8, align 8
  %104 = fdiv double %102, %103
  %105 = load double, double* %7, align 8
  %106 = load double, double* %9, align 8
  %107 = fdiv double %105, %106
  %108 = fadd double %104, %107
  store double %108, double* %13, align 8
  br label %109

109:                                              ; preds = %99, %50
  br label %110

110:                                              ; preds = %109
  %111 = load i32, i32* %3, align 4
  %112 = add nsw i32 %111, 1
  store i32 %112, i32* %3, align 4
  br label %16

113:                                              ; preds = %16
  ret i32 0
}

; Function Attrs: argmemonly nounwind willreturn
declare void @llvm.memset.p0i8.i64(i8* nocapture writeonly, i8, i64, i1 immarg) #1

declare dso_local i32 @__isoc99_scanf(i8*, ...) #2

declare dso_local i32 @printf(i8*, ...) #2


!llvm.module.flags = !{!0}
!llvm.ident = !{!1}

!0 = !{i32 1, !"wchar_size", i32 4}
!1 = !{!"clang version 10.0.0-4ubuntu1 "}
